target datalayout = "e-m:e-p270:32:32-p271:32:32-p272:64:64-i64:64-i128:128-f80:128-n8:16:32:64-S128"
target triple = "x86_64-pc-linux-gnu"

%struct.H5B2_class_t = type { i32, ptr, i64, ptr, ptr, ptr, ptr, ptr, ptr, ptr }

@H5B2_init_g = external global i8, align 1
@H5_libterm_g = external global i8, align 1
@.str = private unnamed_addr constant [101 x i8] c"generated/home/dtcxzyw/WorkSpace/Projects/compilers/llvm-opt-benchmark/bench/hdf5/hdf5/src/H5B2int.c\00", align 1
@__func__.H5B2__locate_record = private unnamed_addr constant [20 x i8] c"H5B2__locate_record\00", align 1
@H5E_BTREE_g = external global i64, align 8
@H5E_CANTCOMPARE_g = external global i64, align 8
@.str.1 = private unnamed_addr constant [29 x i8] c"can't compare btree2 records\00", align 1

; Function Attrs: nounwind uwtable
define i32 @H5B2__locate_record(ptr noundef %0, i32 noundef %1, ptr noundef %2, ptr noundef %3, ptr noundef %4, ptr noundef %5, ptr noundef %6) #0 {
  %8 = alloca ptr, align 8
  %9 = alloca i32, align 4
  %10 = alloca ptr, align 8
  %11 = alloca ptr, align 8
  %12 = alloca ptr, align 8
  %13 = alloca ptr, align 8
  %14 = alloca ptr, align 8
  %15 = alloca i32, align 4
  %16 = alloca i32, align 4
  %17 = alloca i32, align 4
  %18 = alloca i32, align 4
  %19 = alloca i8, align 1
  store ptr %0, ptr %8, align 8, !tbaa !3
  store i32 %1, ptr %9, align 4, !tbaa !8
  store ptr %2, ptr %10, align 8, !tbaa !10
  store ptr %3, ptr %11, align 8, !tbaa !12
  store ptr %4, ptr %12, align 8, !tbaa !14
  store ptr %5, ptr %13, align 8, !tbaa !15
  store ptr %6, ptr %14, align 8, !tbaa !15
  call void @llvm.lifetime.start.p0(i64 4, ptr %15) #6
  store i32 0, ptr %15, align 4, !tbaa !8
  call void @llvm.lifetime.start.p0(i64 4, ptr %16) #6
  call void @llvm.lifetime.start.p0(i64 4, ptr %17) #6
  store i32 0, ptr %17, align 4, !tbaa !8
  call void @llvm.lifetime.start.p0(i64 4, ptr %18) #6
  store i32 0, ptr %18, align 4, !tbaa !8
  call void @llvm.lifetime.start.p0(i64 1, ptr %19) #6
  store i8 0, ptr %19, align 1, !tbaa !17
  %20 = load i8, ptr @H5B2_init_g, align 1, !tbaa !17, !range !19, !noundef !20
  %21 = trunc i8 %20 to i1
  br i1 %21, label %26, label %22

22:                                               ; preds = %7
  %23 = load i8, ptr @H5_libterm_g, align 1, !tbaa !17, !range !19, !noundef !20
  %24 = trunc i8 %23 to i1
  %25 = xor i1 %24, true
  br label %26

26:                                               ; preds = %22, %7
  %27 = phi i1 [ true, %7 ], [ %25, %22 ]
  %28 = xor i1 %27, true
  %29 = xor i1 %28, true
  %30 = zext i1 %29 to i32
  %31 = sext i32 %30 to i64
  %32 = call i64 @llvm.expect.i64(i64 %31, i64 1)
  %33 = icmp ne i64 %32, 0
  br i1 %33, label %34, label %99

34:                                               ; preds = %26
  %35 = load ptr, ptr %14, align 8, !tbaa !15
  store i32 -1, ptr %35, align 4, !tbaa !8
  %36 = load i32, ptr %9, align 4, !tbaa !8
  store i32 %36, ptr %16, align 4, !tbaa !8
  br label %37

37:                                               ; preds = %94, %34
  %38 = load i32, ptr %15, align 4, !tbaa !8
  %39 = load i32, ptr %16, align 4, !tbaa !8
  %40 = icmp ult i32 %38, %39
  br i1 %40, label %41, label %45

41:                                               ; preds = %37
  %42 = load ptr, ptr %14, align 8, !tbaa !15
  %43 = load i32, ptr %42, align 4, !tbaa !8
  %44 = icmp ne i32 %43, 0
  br label %45

45:                                               ; preds = %41, %37
  %46 = phi i1 [ false, %37 ], [ %44, %41 ]
  br i1 %46, label %47, label %95

47:                                               ; preds = %45
  %48 = load i32, ptr %15, align 4, !tbaa !8
  %49 = load i32, ptr %16, align 4, !tbaa !8
  %50 = add i32 %48, %49
  %51 = udiv i32 %50, 2
  store i32 %51, ptr %17, align 4, !tbaa !8
  %52 = load ptr, ptr %8, align 8, !tbaa !3
  %53 = getelementptr inbounds nuw %struct.H5B2_class_t, ptr %52, i32 0, i32 6
  %54 = load ptr, ptr %53, align 8, !tbaa !21
  %55 = load ptr, ptr %12, align 8, !tbaa !14
  %56 = load ptr, ptr %11, align 8, !tbaa !12
  %57 = load ptr, ptr %10, align 8, !tbaa !10
  %58 = load i32, ptr %17, align 4, !tbaa !8
  %59 = zext i32 %58 to i64
  %60 = getelementptr inbounds nuw i64, ptr %57, i64 %59
  %61 = load i64, ptr %60, align 8, !tbaa !24
  %62 = getelementptr inbounds nuw i8, ptr %56, i64 %61
  %63 = load ptr, ptr %14, align 8, !tbaa !15
  %64 = call i32 %54(ptr noundef %55, ptr noundef %62, ptr noundef %63)
  %65 = icmp slt i32 %64, 0
  br i1 %65, label %66, label %85

66:                                               ; preds = %47
  br label %67

67:                                               ; preds = %66
  br label %68

68:                                               ; preds = %67
  br label %69

69:                                               ; preds = %68
  %70 = load i64, ptr @H5E_BTREE_g, align 8, !tbaa !24
  %71 = load i64, ptr @H5E_CANTCOMPARE_g, align 8, !tbaa !24
  %72 = call i32 (ptr, ptr, i32, i64, i64, ptr, ...) @H5E_printf_stack(ptr noundef @.str, ptr noundef @__func__.H5B2__locate_record, i32 noundef 105, i64 noundef %70, i64 noundef %71, ptr noundef @.str.1)
  br label %73

73:                                               ; preds = %69
  br label %74

74:                                               ; preds = %73
  store i8 1, ptr %19, align 1, !tbaa !17
  %75 = load i8, ptr %19, align 1, !tbaa !17, !range !19, !noundef !20
  %76 = trunc i8 %75 to i1
  %77 = zext i1 %76 to i8
  store i8 %77, ptr %19, align 1, !tbaa !17
  br label %78

78:                                               ; preds = %74
  br label %79

79:                                               ; preds = %78
  br label %80

80:                                               ; preds = %79
  store i32 -1, ptr %18, align 4, !tbaa !8
  br label %98

81:                                               ; No predecessors!
  br label %82

82:                                               ; preds = %81
  br label %83

83:                                               ; preds = %82
  br label %84

84:                                               ; preds = %83
  br label %85

85:                                               ; preds = %84, %47
  %86 = load ptr, ptr %14, align 8, !tbaa !15
  %87 = load i32, ptr %86, align 4, !tbaa !8
  %88 = icmp slt i32 %87, 0
  br i1 %88, label %89, label %91

89:                                               ; preds = %85
  %90 = load i32, ptr %17, align 4, !tbaa !8
  store i32 %90, ptr %16, align 4, !tbaa !8
  br label %94

91:                                               ; preds = %85
  %92 = load i32, ptr %17, align 4, !tbaa !8
  %93 = add i32 %92, 1
  store i32 %93, ptr %15, align 4, !tbaa !8
  br label %94

94:                                               ; preds = %91, %89
  br label %37, !llvm.loop !25

95:                                               ; preds = %45
  %96 = load i32, ptr %17, align 4, !tbaa !8
  %97 = load ptr, ptr %13, align 8, !tbaa !15
  store i32 %96, ptr %97, align 4, !tbaa !8
  br label %98

98:                                               ; preds = %95, %80
  br label %99

99:                                               ; preds = %98, %26
  %100 = load i32, ptr %18, align 4, !tbaa !8
  call void @llvm.lifetime.end.p0(i64 1, ptr %19) #6
  call void @llvm.lifetime.end.p0(i64 4, ptr %18) #6
  call void @llvm.lifetime.end.p0(i64 4, ptr %17) #6
  call void @llvm.lifetime.end.p0(i64 4, ptr %16) #6
  call void @llvm.lifetime.end.p0(i64 4, ptr %15) #6
  ret i32 %100
}