; Function Attrs: nounwind uwtable
define range(i32 -1, 1) i32 @H5B2__locate_record(ptr noundef readonly captures(none) %0, i32 noundef %1, ptr noundef readonly captures(none) %2, ptr noundef %3, ptr noundef %4, ptr noundef writeonly captures(none) %5, ptr noundef %6) local_unnamed_addr #0 {
  %8 = load i8, ptr @H5B2_init_g, align 1, !tbaa !3, !range !7, !noundef !8
  %9 = trunc nuw i8 %8 to i1
  %10 = load i8, ptr @H5_libterm_g, align 1, !range !7
  %11 = trunc nuw i8 %10 to i1
  %12 = xor i1 %11, true
  %13 = select i1 %9, i1 true, i1 %12
  br i1 %13, label %14, label %35, !prof !9

14:                                               ; preds = %7
  store i32 -1, ptr %6, align 4, !tbaa !10
  %.not29 = icmp eq i32 %1, 0
  br i1 %.not29, label %.critedge, label %.lr.ph

.lr.ph:                                           ; preds = %14
  %15 = getelementptr inbounds nuw i8, ptr %0, i64 48
  br label %16

16:                                               ; preds = %30, %.lr.ph
  %.0212431 = phi i32 [ 0, %.lr.ph ], [ %.122, %30 ]
  %.0202530 = phi i32 [ %1, %.lr.ph ], [ %.1, %30 ]
  %17 = add i32 %.0202530, %.0212431
  %18 = lshr i32 %17, 1
  %19 = load ptr, ptr %15, align 8, !tbaa !12
  %20 = zext nneg i32 %18 to i64
  %21 = getelementptr inbounds nuw i64, ptr %2, i64 %20
  %22 = load i64, ptr %21, align 8, !tbaa !17
  %23 = getelementptr inbounds nuw i8, ptr %3, i64 %22
  %24 = tail call i32 %19(ptr noundef %4, ptr noundef %23, ptr noundef nonnull %6) #5
  %25 = icmp slt i32 %24, 0
  br i1 %25, label %26, label %30

26:                                               ; preds = %16
  %27 = load i64, ptr @H5E_BTREE_g, align 8, !tbaa !17
  %28 = load i64, ptr @H5E_CANTCOMPARE_g, align 8, !tbaa !17
  %29 = tail call i32 (ptr, ptr, i32, i64, i64, ptr, ...) @H5E_printf_stack(ptr noundef nonnull @.str, ptr noundef nonnull @__func__.H5B2__locate_record, i32 noundef 105, i64 noundef %27, i64 noundef %28, ptr noundef nonnull @.str.1) #5
  br label %35

30:                                               ; preds = %16
  %31 = load i32, ptr %6, align 4, !tbaa !10
  %32 = icmp slt i32 %31, 0
  %33 = add nuw i32 %18, 1
  %.122 = select i1 %32, i32 %.0212431, i32 %33
  %.1 = select i1 %32, i32 %18, i32 %.0202530
  %34 = icmp uge i32 %.122, %.1
  %.not = icmp eq i32 %31, 0
  %or.cond = or i1 %34, %.not
  br i1 %or.cond, label %.critedge, label %16, !llvm.loop !18

.critedge:                                        ; preds = %30, %14
  %.019.lcssa = phi i32 [ 0, %14 ], [ %18, %30 ]
  store i32 %.019.lcssa, ptr %5, align 4, !tbaa !10
  br label %35

35:                                               ; preds = %26, %.critedge, %7
  %.0 = phi i32 [ -1, %26 ], [ 0, %.critedge ], [ 0, %7 ]
  ret i32 %.0
}